; Function Attrs: mustprogress uwtable
define void @utrie2_set32ForLeadSurrogateCodeUnit_77(ptr noundef readonly captures(none) %0, i32 noundef %1, i32 noundef %2, ptr noundef captures(none) %3) local_unnamed_addr #0 {
  %5 = load i32, ptr %3, align 4, !tbaa !3
  %6 = icmp slt i32 %5, 1
  br i1 %6, label %7, label %_ZL5set32P9UNewTrie2iajP10UErrorCode.exit

7:                                                ; preds = %4
  %8 = and i32 %1, -1024
  %9 = icmp eq i32 %8, 55296
  br i1 %9, label %11, label %10

10:                                               ; preds = %7
  store i32 1, ptr %3, align 4, !tbaa !3
  br label %_ZL5set32P9UNewTrie2iajP10UErrorCode.exit

11:                                               ; preds = %7
  %12 = getelementptr inbounds nuw i8, ptr %0, i64 72
  %13 = load ptr, ptr %12, align 8, !tbaa !17
  %14 = icmp eq ptr %13, null
  br i1 %14, label %18, label %15

15:                                               ; preds = %11
  %16 = getelementptr inbounds nuw i8, ptr %13, i64 144172
  %17 = load i8, ptr %16, align 4, !tbaa !25
  %.not.i = icmp eq i8 %17, 0
  br i1 %.not.i, label %19, label %18

18:                                               ; preds = %15, %11
  store i32 30, ptr %3, align 4, !tbaa !3
  br label %_ZL5set32P9UNewTrie2iajP10UErrorCode.exit

19:                                               ; preds = %15
  %20 = tail call fastcc noundef i32 @_ZL12getDataBlockP9UNewTrie2ia(ptr noundef %13, i32 noundef %1, i8 noundef signext 0)
  %21 = icmp slt i32 %20, 0
  br i1 %21, label %22, label %23

22:                                               ; preds = %19
  store i32 7, ptr %3, align 4, !tbaa !3
  br label %_ZL5set32P9UNewTrie2iajP10UErrorCode.exit

23:                                               ; preds = %19
  %24 = getelementptr inbounds nuw i8, ptr %13, i64 144128
  %25 = load ptr, ptr %24, align 8, !tbaa !18
  %26 = and i32 %1, 31
  %27 = add nuw nsw i32 %20, %26
  %28 = zext nneg i32 %27 to i64
  %29 = getelementptr inbounds nuw i32, ptr %25, i64 %28
  store i32 %2, ptr %29, align 4, !tbaa !26
  br label %_ZL5set32P9UNewTrie2iajP10UErrorCode.exit

_ZL5set32P9UNewTrie2iajP10UErrorCode.exit:        ; preds = %23, %22, %18, %4, %10
  ret void
}